target datalayout = "e-m:e-p270:32:32-p271:32:32-p272:64:64-i64:64-i128:128-f80:128-n8:16:32:64-S128"
target triple = "x86_64-pc-linux-gnu"

%struct.slurm_conf_t = type { i64, ptr, i16, ptr, ptr, ptr, ptr, ptr, i16, ptr, ptr, ptr, ptr, ptr, ptr, ptr, i16, ptr, ptr, ptr, ptr, i16, ptr, ptr, ptr, i64, ptr, ptr, ptr, ptr, i16, ptr, ptr, i16, i32, ptr, i32, ptr, i32, i32, ptr, ptr, i64, i64, ptr, i16, i16, ptr, i32, i32, ptr, i32, ptr, i32, i16, i16, i16, ptr, i16, i16, ptr, ptr, i32, i16, i16, ptr, i32, i16, ptr, ptr, ptr, ptr, i16, ptr, ptr, ptr, ptr, i32, ptr, ptr, ptr, ptr, i16, i16, ptr, i32, i32, i32, i16, i16, ptr, ptr, i16, ptr, ptr, i32, i32, i32, i32, i32, i64, i32, i32, i16, ptr, ptr, i32, ptr, ptr, ptr, i16, i32, ptr, ptr, i16, ptr, ptr, i32, i16, ptr, ptr, ptr, ptr, i32, i32, i16, i16, i32, ptr, i16, ptr, i32, i32, i32, i32, i32, i32, ptr, i16, ptr, ptr, i32, i16, ptr, i32, i16, i16, ptr, ptr, ptr, i16, ptr, ptr, ptr, ptr, i16, i16, ptr, i16, ptr, i16, ptr, i16, ptr, i16, ptr, ptr, ptr, ptr, i16, ptr, ptr, ptr, i32, ptr, i32, ptr, ptr, i16, ptr, ptr, i32, i16, ptr, ptr, i16, i16, ptr, i16, ptr, ptr, ptr, i32, ptr, i16, i16, ptr, ptr, ptr, ptr, ptr, ptr, ptr, ptr, i16, i32, i16, ptr, ptr, ptr, ptr, i32, ptr, ptr, ptr, i16, ptr, ptr, ptr, i16, ptr, i16, ptr, i16, i16, ptr }

@slurm_conf = external global %struct.slurm_conf_t, align 8
@.str.3 = private unnamed_addr constant [24 x i8] c"%s: control_addr[%d]=%s\00", align 1
@__func__.unpack_stepd_reconf = private unnamed_addr constant [20 x i8] c"unpack_stepd_reconf\00", align 1
@.str.4 = private unnamed_addr constant [66 x i8] c"%s: slurmctld_port=%d, slurmctld_port_count=%d, slurmctld_addr=%s\00", align 1
@.str.5 = private unnamed_addr constant [21 x i8] c"%s: unpack_error: %m\00", align 1

; Function Attrs: nounwind uwtable
define dso_local void @unpack_stepd_reconf(ptr noundef %0) #0 {
  %2 = alloca ptr, align 8
  %3 = alloca i32, align 4
  %4 = alloca i32, align 4
  %5 = alloca i32, align 4
  store ptr %0, ptr %2, align 8
  call void @slurm_xfree(ptr noundef getelementptr inbounds nuw (%struct.slurm_conf_t, ptr @slurm_conf, i32 0, i32 35))
  br label %6

6:                                                ; preds = %1
  %7 = load ptr, ptr %2, align 8
  %8 = call i32 @unpackstr_array(ptr noundef getelementptr inbounds nuw (%struct.slurm_conf_t, ptr @slurm_conf, i32 0, i32 35), ptr noundef getelementptr inbounds nuw (%struct.slurm_conf_t, ptr @slurm_conf, i32 0, i32 36), ptr noundef %7)
  %9 = icmp ne i32 %8, 0
  br i1 %9, label %10, label %11

10:                                               ; preds = %6
  br label %75

11:                                               ; preds = %6
  br label %12

12:                                               ; preds = %11
  call void @slurm_xfree(ptr noundef getelementptr inbounds nuw (%struct.slurm_conf_t, ptr @slurm_conf, i32 0, i32 177))
  br label %13

13:                                               ; preds = %12
  call void @llvm.lifetime.start.p0(i64 4, ptr %3) #4
  %14 = load ptr, ptr %2, align 8
  %15 = call i32 @unpackstr_xmalloc_chooser(ptr noundef getelementptr inbounds nuw (%struct.slurm_conf_t, ptr @slurm_conf, i32 0, i32 177), ptr noundef %3, ptr noundef %14)
  %16 = icmp ne i32 %15, 0
  br i1 %16, label %17, label %18

17:                                               ; preds = %13
  store i32 4, ptr %4, align 4
  br label %19

18:                                               ; preds = %13
  store i32 0, ptr %4, align 4
  br label %19

19:                                               ; preds = %17, %18
  call void @llvm.lifetime.end.p0(i64 4, ptr %3) #4
  %20 = load i32, ptr %4, align 4
  switch i32 %20, label %78 [
    i32 0, label %21
    i32 4, label %75
  ]

21:                                               ; preds = %19
  br label %22

22:                                               ; preds = %21
  br label %23

23:                                               ; preds = %22
  %24 = load ptr, ptr %2, align 8
  %25 = call i32 @unpack32(ptr noundef getelementptr inbounds nuw (%struct.slurm_conf_t, ptr @slurm_conf, i32 0, i32 181), ptr noundef %24)
  %26 = icmp ne i32 %25, 0
  br i1 %26, label %27, label %28

27:                                               ; preds = %23
  br label %75

28:                                               ; preds = %23
  br label %29

29:                                               ; preds = %28
  br label %30

30:                                               ; preds = %29
  %31 = load ptr, ptr %2, align 8
  %32 = call i32 @unpack16(ptr noundef getelementptr inbounds nuw (%struct.slurm_conf_t, ptr @slurm_conf, i32 0, i32 182), ptr noundef %31)
  %33 = icmp ne i32 %32, 0
  br i1 %33, label %34, label %35

34:                                               ; preds = %30
  br label %75

35:                                               ; preds = %30
  br label %36

36:                                               ; preds = %35
  call void @llvm.lifetime.start.p0(i64 4, ptr %5) #4
  store i32 0, ptr %5, align 4
  br label %37

37:                                               ; preds = %59, %36
  %38 = load i32, ptr %5, align 4
  %39 = load i32, ptr getelementptr inbounds nuw (%struct.slurm_conf_t, ptr @slurm_conf, i32 0, i32 36), align 8
  %40 = icmp ult i32 %38, %39
  br i1 %40, label %42, label %41

41:                                               ; preds = %37
  store i32 11, ptr %4, align 4
  call void @llvm.lifetime.end.p0(i64 4, ptr %5) #4
  br label %62

42:                                               ; preds = %37
  br label %43

43:                                               ; preds = %42
  br label %44

44:                                               ; preds = %43
  %45 = call i32 @get_log_level()
  %46 = icmp sge i32 %45, 5
  br i1 %46, label %47, label %54

47:                                               ; preds = %44
  %48 = load i32, ptr %5, align 4
  %49 = load ptr, ptr getelementptr inbounds nuw (%struct.slurm_conf_t, ptr @slurm_conf, i32 0, i32 35), align 8
  %50 = load i32, ptr %5, align 4
  %51 = sext i32 %50 to i64
  %52 = getelementptr inbounds ptr, ptr %49, i64 %51
  %53 = load ptr, ptr %52, align 8
  call void (i32, ptr, ...) @log_var(i32 noundef 5, ptr noundef @.str.3, ptr noundef @__func__.unpack_stepd_reconf, i32 noundef %48, ptr noundef %53)
  br label %54

54:                                               ; preds = %47, %44
  br label %55

55:                                               ; preds = %54
  br label %56

56:                                               ; preds = %55
  br label %57

57:                                               ; preds = %56
  br label %58

58:                                               ; preds = %57
  br label %59

59:                                               ; preds = %58
  %60 = load i32, ptr %5, align 4
  %61 = add nsw i32 %60, 1
  store i32 %61, ptr %5, align 4
  br label %37, !llvm.loop !10

62:                                               ; preds = %41
  br label %63

63:                                               ; preds = %62
  br label %64

64:                                               ; preds = %63
  %65 = call i32 @get_log_level()
  %66 = icmp sge i32 %65, 5
  br i1 %66, label %67, label %72

67:                                               ; preds = %64
  %68 = load i32, ptr getelementptr inbounds nuw (%struct.slurm_conf_t, ptr @slurm_conf, i32 0, i32 181), align 8
  %69 = load i16, ptr getelementptr inbounds nuw (%struct.slurm_conf_t, ptr @slurm_conf, i32 0, i32 182), align 4
  %70 = zext i16 %69 to i32
  %71 = load ptr, ptr getelementptr inbounds nuw (%struct.slurm_conf_t, ptr @slurm_conf, i32 0, i32 177), align 8
  call void (i32, ptr, ...) @log_var(i32 noundef 5, ptr noundef @.str.4, ptr noundef @__func__.unpack_stepd_reconf, i32 noundef %68, i32 noundef %70, ptr noundef %71)
  br label %72

72:                                               ; preds = %67, %64
  br label %73

73:                                               ; preds = %72
  br label %74

74:                                               ; preds = %73
  br label %77

75:                                               ; preds = %34, %27, %19, %10
  %76 = call i32 (ptr, ...) @error(ptr noundef @.str.5, ptr noundef @__func__.unpack_stepd_reconf)
  br label %77

77:                                               ; preds = %75, %74
  ret void

78:                                               ; preds = %19
  unreachable
}