; Function Attrs: nounwind uwtable
define dso_local void @unpack_stepd_reconf(ptr noundef %0) local_unnamed_addr #0 {
  %2 = alloca i32, align 4
  tail call void @slurm_xfree(ptr noundef nonnull getelementptr inbounds nuw (i8, ptr @slurm_conf, i64 272)) #4
  %3 = tail call i32 @unpackstr_array(ptr noundef nonnull getelementptr inbounds nuw (i8, ptr @slurm_conf, i64 272), ptr noundef nonnull getelementptr inbounds nuw (i8, ptr @slurm_conf, i64 280), ptr noundef %0) #4
  %.not = icmp eq i32 %3, 0
  br i1 %.not, label %4, label %29

4:                                                ; preds = %1
  tail call void @slurm_xfree(ptr noundef nonnull getelementptr inbounds nuw (i8, ptr @slurm_conf, i64 1184)) #4
  call void @llvm.lifetime.start.p0(i64 4, ptr nonnull %2) #4
  %5 = call i32 @unpackstr_xmalloc_chooser(ptr noundef nonnull getelementptr inbounds nuw (i8, ptr @slurm_conf, i64 1184), ptr noundef nonnull %2, ptr noundef %0) #4
  %.not9 = icmp eq i32 %5, 0
  call void @llvm.lifetime.end.p0(i64 4, ptr nonnull %2) #4
  br i1 %.not9, label %6, label %29

6:                                                ; preds = %4
  %7 = call i32 @unpack32(ptr noundef nonnull getelementptr inbounds nuw (i8, ptr @slurm_conf, i64 1216), ptr noundef %0) #4
  %.not10 = icmp eq i32 %7, 0
  br i1 %.not10, label %8, label %29

8:                                                ; preds = %6
  %9 = call i32 @unpack16(ptr noundef nonnull getelementptr inbounds nuw (i8, ptr @slurm_conf, i64 1220), ptr noundef %0) #4
  %.not11 = icmp eq i32 %9, 0
  br i1 %.not11, label %.preheader, label %29

.preheader:                                       ; preds = %8
  %10 = load i32, ptr getelementptr inbounds nuw (i8, ptr @slurm_conf, i64 280), align 8
  %.not13 = icmp eq i32 %10, 0
  br i1 %.not13, label %._crit_edge, label %.lr.ph

._crit_edge:                                      ; preds = %20, %.preheader
  %11 = call i32 @get_log_level() #4
  %12 = icmp sgt i32 %11, 4
  br i1 %12, label %24, label %31

.lr.ph:                                           ; preds = %.preheader, %20
  %indvars.iv = phi i64 [ %indvars.iv.next, %20 ], [ 0, %.preheader ]
  %13 = call i32 @get_log_level() #4
  %14 = icmp sgt i32 %13, 4
  br i1 %14, label %15, label %20

15:                                               ; preds = %.lr.ph
  %16 = load ptr, ptr getelementptr inbounds nuw (i8, ptr @slurm_conf, i64 272), align 8
  %17 = getelementptr inbounds nuw ptr, ptr %16, i64 %indvars.iv
  %18 = load ptr, ptr %17, align 8
  %19 = trunc nuw nsw i64 %indvars.iv to i32
  call void (i32, ptr, ...) @log_var(i32 noundef 5, ptr noundef nonnull @.str.3, ptr noundef nonnull @__func__.unpack_stepd_reconf, i32 noundef %19, ptr noundef %18) #4
  br label %20

20:                                               ; preds = %.lr.ph, %15
  %indvars.iv.next = add nuw nsw i64 %indvars.iv, 1
  %21 = load i32, ptr getelementptr inbounds nuw (i8, ptr @slurm_conf, i64 280), align 8
  %22 = zext i32 %21 to i64
  %23 = icmp samesign ult i64 %indvars.iv.next, %22
  br i1 %23, label %.lr.ph, label %._crit_edge, !llvm.loop !10

24:                                               ; preds = %._crit_edge
  %25 = load i32, ptr getelementptr inbounds nuw (i8, ptr @slurm_conf, i64 1216), align 8
  %26 = load i16, ptr getelementptr inbounds nuw (i8, ptr @slurm_conf, i64 1220), align 4
  %27 = zext i16 %26 to i32
  %28 = load ptr, ptr getelementptr inbounds nuw (i8, ptr @slurm_conf, i64 1184), align 8
  call void (i32, ptr, ...) @log_var(i32 noundef 5, ptr noundef nonnull @.str.4, ptr noundef nonnull @__func__.unpack_stepd_reconf, i32 noundef %25, i32 noundef %27, ptr noundef %28) #4
  br label %31

29:                                               ; preds = %4, %8, %6, %1
  %30 = call i32 (ptr, ...) @error(ptr noundef nonnull @.str.5, ptr noundef nonnull @__func__.unpack_stepd_reconf) #4
  br label %31

31:                                               ; preds = %._crit_edge, %24, %29
  ret void
}